; Function Attrs: nounwind uwtable
define zeroext i8 @l_Lean_Compiler_LCNF_AlphaEqv_eqvArg(ptr noundef %0, ptr noundef %1, ptr noundef %2) local_unnamed_addr #0 {
  %4 = ptrtoint ptr %0 to i64
  %5 = and i64 %4, 1
  %.not.i = icmp eq i64 %5, 0
  br i1 %.not.i, label %9, label %6

6:                                                ; preds = %3
  %7 = lshr i64 %4, 1
  %8 = trunc i64 %7 to i32
  br label %lean_obj_tag.exit

9:                                                ; preds = %3
  %10 = getelementptr i8, ptr %0, i64 4
  %.val.i = load i32, ptr %10, align 4
  %11 = lshr i32 %.val.i, 24
  br label %lean_obj_tag.exit

lean_obj_tag.exit:                                ; preds = %6, %9
  %.0.i = phi i32 [ %8, %6 ], [ %11, %9 ]
  %12 = ptrtoint ptr %1 to i64
  %13 = and i64 %12, 1
  %.not.i28 = icmp eq i64 %13, 0
  switch i32 %.0.i, label %36 [
    i32 0, label %14
    i32 1, label %22
  ]

14:                                               ; preds = %lean_obj_tag.exit
  br i1 %.not.i28, label %18, label %15

15:                                               ; preds = %14
  %16 = lshr i64 %12, 1
  %17 = trunc i64 %16 to i32
  br label %lean_obj_tag.exit23

18:                                               ; preds = %14
  %19 = getelementptr i8, ptr %1, i64 4
  %.val.i22 = load i32, ptr %19, align 4
  %20 = lshr i32 %.val.i22, 24
  br label %lean_obj_tag.exit23

lean_obj_tag.exit23:                              ; preds = %15, %18
  %.0.i21 = phi i32 [ %17, %15 ], [ %20, %18 ]
  %21 = icmp eq i32 %.0.i21, 0
  %. = zext i1 %21 to i8
  br label %50

22:                                               ; preds = %lean_obj_tag.exit
  br i1 %.not.i28, label %26, label %23

23:                                               ; preds = %22
  %24 = lshr i64 %12, 1
  %25 = trunc i64 %24 to i32
  br label %lean_obj_tag.exit27

26:                                               ; preds = %22
  %27 = getelementptr i8, ptr %1, i64 4
  %.val.i26 = load i32, ptr %27, align 4
  %28 = lshr i32 %.val.i26, 24
  br label %lean_obj_tag.exit27

lean_obj_tag.exit27:                              ; preds = %23, %26
  %.0.i25 = phi i32 [ %25, %23 ], [ %28, %26 ]
  %29 = icmp eq i32 %.0.i25, 1
  br i1 %29, label %30, label %50

30:                                               ; preds = %lean_obj_tag.exit27
  %31 = getelementptr inbounds nuw i8, ptr %0, i64 8
  %32 = load ptr, ptr %31, align 8, !tbaa !4
  %33 = getelementptr inbounds nuw i8, ptr %1, i64 8
  %34 = load ptr, ptr %33, align 8, !tbaa !4
  %35 = tail call zeroext i8 @l_Lean_Compiler_LCNF_AlphaEqv_eqvFVar(ptr noundef %32, ptr noundef %34, ptr noundef %2)
  br label %50

36:                                               ; preds = %lean_obj_tag.exit
  br i1 %.not.i28, label %40, label %37

37:                                               ; preds = %36
  %38 = lshr i64 %12, 1
  %39 = trunc i64 %38 to i32
  br label %lean_obj_tag.exit31

40:                                               ; preds = %36
  %41 = getelementptr i8, ptr %1, i64 4
  %.val.i30 = load i32, ptr %41, align 4
  %42 = lshr i32 %.val.i30, 24
  br label %lean_obj_tag.exit31

lean_obj_tag.exit31:                              ; preds = %37, %40
  %.0.i29 = phi i32 [ %39, %37 ], [ %42, %40 ]
  %43 = icmp eq i32 %.0.i29, 2
  br i1 %43, label %44, label %50

44:                                               ; preds = %lean_obj_tag.exit31
  %45 = getelementptr inbounds nuw i8, ptr %0, i64 8
  %46 = load ptr, ptr %45, align 8, !tbaa !4
  %47 = getelementptr inbounds nuw i8, ptr %1, i64 8
  %48 = load ptr, ptr %47, align 8, !tbaa !4
  %49 = tail call zeroext i8 @l_Lean_Compiler_LCNF_AlphaEqv_eqvType(ptr noundef %46, ptr noundef %48, ptr noundef %2)
  br label %50

50:                                               ; preds = %lean_obj_tag.exit31, %lean_obj_tag.exit27, %lean_obj_tag.exit23, %44, %30
  %.0 = phi i8 [ %49, %44 ], [ %35, %30 ], [ %., %lean_obj_tag.exit23 ], [ 0, %lean_obj_tag.exit27 ], [ 0, %lean_obj_tag.exit31 ]
  ret i8 %.0
}